target datalayout = "e-m:e-p270:32:32-p271:32:32-p272:64:64-i64:64-i128:128-f80:128-n8:16:32:64-S128"
target triple = "x86_64-pc-linux-gnu"

%struct._iax2_dissector_info_t = type { i32, i32 }

@.str.105 = private unnamed_addr constant [5 x i8] c"data\00", align 1
@.str.112 = private unnamed_addr constant [29 x i8] c"%s:%u: failed assertion \22%s\22\00", align 1
@.str.113 = private unnamed_addr constant [30 x i8] c"epan/dissectors/packet-h223.c\00", align 1

; Function Attrs: nounwind uwtable
define internal i32 @dissect_h223_circuit_data(ptr noundef %0, ptr noundef %1, ptr noundef %2, ptr noundef %3) #0 {
  %5 = alloca ptr, align 8
  %6 = alloca ptr, align 8
  %7 = alloca ptr, align 8
  %8 = alloca ptr, align 8
  %9 = alloca %struct._iax2_dissector_info_t, align 4
  store ptr %0, ptr %5, align 8
  store ptr %1, ptr %6, align 8
  store ptr %2, ptr %7, align 8
  store ptr %3, ptr %8, align 8
  %10 = load ptr, ptr %8, align 8
  %11 = icmp ne ptr %10, null
  br i1 %11, label %12, label %13

12:                                               ; preds = %4
  br label %15

13:                                               ; preds = %4
  call void (ptr, ...) @proto_report_dissector_bug(ptr noundef @.str.112, ptr noundef @.str.113, i32 noundef 1340, ptr noundef @.str.105) #6
  unreachable

14:                                               ; No predecessors!
  br label %15

15:                                               ; preds = %14, %12
  %16 = load ptr, ptr %8, align 8
  call void @llvm.memcpy.p0.p0.i64(ptr align 4 %9, ptr align 4 %16, i64 8, i1 false)
  %17 = load ptr, ptr %5, align 8
  %18 = load ptr, ptr %6, align 8
  %19 = load ptr, ptr %7, align 8
  %20 = getelementptr inbounds %struct._iax2_dissector_info_t, ptr %9, i32 0, i32 0
  %21 = load i32, ptr %20, align 4
  %22 = getelementptr inbounds %struct._iax2_dissector_info_t, ptr %9, i32 0, i32 1
  %23 = load i32, ptr %22, align 4
  call void @dissect_h223_common(ptr noundef %17, ptr noundef %18, ptr noundef %19, i32 noundef %21, i32 noundef %23)
  %24 = load ptr, ptr %5, align 8
  %25 = call i32 @tvb_captured_length(ptr noundef %24)
  ret i32 %25
}